target datalayout = "e-m:e-p270:32:32-p271:32:32-p272:64:64-i64:64-i128:128-f80:128-n8:16:32:64-S128"
target triple = "x86_64-pc-linux-gnu"

%"struct.duckdb_miniz::mz_zip_archive" = type { i64, i64, i32, i32, i32, i32, i64, ptr, ptr, ptr, ptr, ptr, ptr, ptr, ptr, ptr }
%"struct.duckdb_miniz::mz_zip_internal_state_tag" = type { %"struct.duckdb_miniz::mz_zip_array", %"struct.duckdb_miniz::mz_zip_array", %"struct.duckdb_miniz::mz_zip_array", i32, i32, i32, ptr, i64, ptr, i64, i64 }
%"struct.duckdb_miniz::mz_zip_array" = type { ptr, i64, i64, i32 }

; Function Attrs: alwaysinline mustprogress nounwind uwtable
define internal noundef i32 @_ZN12duckdb_minizL24mz_zip_array_range_checkEPKNS_12mz_zip_arrayEj(ptr noundef %0, i32 noundef %1) #8 {
  %3 = alloca ptr, align 8
  %4 = alloca i32, align 4
  store ptr %0, ptr %3, align 8, !tbaa !19
  store i32 %1, ptr %4, align 4, !tbaa !10
  %5 = load i32, ptr %4, align 4, !tbaa !10
  ret i32 %5
}

; Function Attrs: alwaysinline mustprogress nounwind uwtable
define internal noundef i32 @_ZN12duckdb_minizL16mz_zip_set_errorEPNS_14mz_zip_archiveENS_12mz_zip_errorE(ptr noundef %0, i32 noundef %1) #8 {
  %3 = alloca ptr, align 8
  %4 = alloca i32, align 4
  store ptr %0, ptr %3, align 8, !tbaa !19
  store i32 %1, ptr %4, align 4, !tbaa !242
  %5 = load ptr, ptr %3, align 8, !tbaa !19
  %6 = icmp ne ptr %5, null
  br i1 %6, label %7, label %11

7:                                                ; preds = %2
  %8 = load i32, ptr %4, align 4, !tbaa !242
  %9 = load ptr, ptr %3, align 8, !tbaa !19
  %10 = getelementptr inbounds nuw %"struct.duckdb_miniz::mz_zip_archive", ptr %9, i32 0, i32 5
  store i32 %8, ptr %10, align 4, !tbaa !236
  br label %11

11:                                               ; preds = %7, %2
  ret i32 0
}

; Function Attrs: alwaysinline mustprogress uwtable
define internal noundef ptr @_ZN12duckdb_minizL14mz_zip_get_cdhEPNS_14mz_zip_archiveEj(ptr noundef %0, i32 noundef %1) #9 {
  %3 = alloca ptr, align 8
  %4 = alloca ptr, align 8
  %5 = alloca i32, align 4
  store ptr %0, ptr %4, align 8, !tbaa !19
  store i32 %1, ptr %5, align 4, !tbaa !10
  %6 = load ptr, ptr %4, align 8, !tbaa !19
  %7 = icmp ne ptr %6, null
  br i1 %7, label %8, label %19

8:                                                ; preds = %2
  %9 = load ptr, ptr %4, align 8, !tbaa !19
  %10 = getelementptr inbounds nuw %"struct.duckdb_miniz::mz_zip_archive", ptr %9, i32 0, i32 15
  %11 = load ptr, ptr %10, align 8, !tbaa !227
  %12 = icmp ne ptr %11, null
  br i1 %12, label %13, label %19

13:                                               ; preds = %8
  %14 = load i32, ptr %5, align 4, !tbaa !10
  %15 = load ptr, ptr %4, align 8, !tbaa !19
  %16 = getelementptr inbounds nuw %"struct.duckdb_miniz::mz_zip_archive", ptr %15, i32 0, i32 2
  %17 = load i32, ptr %16, align 8, !tbaa !245
  %18 = icmp uge i32 %14, %17
  br i1 %18, label %19, label %20

19:                                               ; preds = %13, %8, %2
  store ptr null, ptr %3, align 8
  br label %49

20:                                               ; preds = %13
  %21 = load ptr, ptr %4, align 8, !tbaa !19
  %22 = getelementptr inbounds nuw %"struct.duckdb_miniz::mz_zip_archive", ptr %21, i32 0, i32 15
  %23 = load ptr, ptr %22, align 8, !tbaa !227
  %24 = getelementptr inbounds nuw %"struct.duckdb_miniz::mz_zip_internal_state_tag", ptr %23, i32 0, i32 0
  %25 = getelementptr inbounds nuw %"struct.duckdb_miniz::mz_zip_array", ptr %24, i32 0, i32 0
  %26 = load ptr, ptr %25, align 8, !tbaa !255
  %27 = load ptr, ptr %4, align 8, !tbaa !19
  %28 = getelementptr inbounds nuw %"struct.duckdb_miniz::mz_zip_archive", ptr %27, i32 0, i32 15
  %29 = load ptr, ptr %28, align 8, !tbaa !227
  %30 = getelementptr inbounds nuw %"struct.duckdb_miniz::mz_zip_internal_state_tag", ptr %29, i32 0, i32 0
  %31 = load ptr, ptr %4, align 8, !tbaa !19
  %32 = getelementptr inbounds nuw %"struct.duckdb_miniz::mz_zip_archive", ptr %31, i32 0, i32 15
  %33 = load ptr, ptr %32, align 8, !tbaa !227
  %34 = getelementptr inbounds nuw %"struct.duckdb_miniz::mz_zip_internal_state_tag", ptr %33, i32 0, i32 1
  %35 = getelementptr inbounds nuw %"struct.duckdb_miniz::mz_zip_array", ptr %34, i32 0, i32 0
  %36 = load ptr, ptr %35, align 8, !tbaa !256
  %37 = load ptr, ptr %4, align 8, !tbaa !19
  %38 = getelementptr inbounds nuw %"struct.duckdb_miniz::mz_zip_archive", ptr %37, i32 0, i32 15
  %39 = load ptr, ptr %38, align 8, !tbaa !227
  %40 = getelementptr inbounds nuw %"struct.duckdb_miniz::mz_zip_internal_state_tag", ptr %39, i32 0, i32 1
  %41 = load i32, ptr %5, align 4, !tbaa !10
  %42 = call noundef i32 @_ZN12duckdb_minizL24mz_zip_array_range_checkEPKNS_12mz_zip_arrayEj(ptr noundef %40, i32 noundef %41)
  %43 = zext i32 %42 to i64
  %44 = getelementptr inbounds nuw i32, ptr %36, i64 %43
  %45 = load i32, ptr %44, align 4, !tbaa !10
  %46 = call noundef i32 @_ZN12duckdb_minizL24mz_zip_array_range_checkEPKNS_12mz_zip_arrayEj(ptr noundef %30, i32 noundef %45)
  %47 = zext i32 %46 to i64
  %48 = getelementptr inbounds nuw i8, ptr %26, i64 %47
  store ptr %48, ptr %3, align 8
  br label %49

49:                                               ; preds = %20, %19
  %50 = load ptr, ptr %3, align 8
  ret ptr %50
}

; Function Attrs: mustprogress uwtable
define noundef i32 @_ZN12duckdb_miniz31mz_zip_reader_is_file_supportedEPNS_14mz_zip_archiveEj(ptr noundef %0, i32 noundef %1) #5 {
  %3 = alloca i32, align 4
  %4 = alloca ptr, align 8
  %5 = alloca i32, align 4
  %6 = alloca i32, align 4
  %7 = alloca i32, align 4
  %8 = alloca ptr, align 8
  %9 = alloca i32, align 4
  store ptr %0, ptr %4, align 8, !tbaa !19
  store i32 %1, ptr %5, align 4, !tbaa !10
  call void @llvm.lifetime.start.p0(i64 4, ptr %6) #11
  call void @llvm.lifetime.start.p0(i64 4, ptr %7) #11
  call void @llvm.lifetime.start.p0(i64 8, ptr %8) #11
  %10 = load ptr, ptr %4, align 8, !tbaa !19
  %11 = load i32, ptr %5, align 4, !tbaa !10
  %12 = call noundef ptr @_ZN12duckdb_minizL14mz_zip_get_cdhEPNS_14mz_zip_archiveEj(ptr noundef %10, i32 noundef %11)
  store ptr %12, ptr %8, align 8, !tbaa !7
  %13 = load ptr, ptr %8, align 8, !tbaa !7
  %14 = icmp ne ptr %13, null
  br i1 %14, label %18, label %15

15:                                               ; preds = %2
  %16 = load ptr, ptr %4, align 8, !tbaa !19
  %17 = call noundef i32 @_ZN12duckdb_minizL16mz_zip_set_errorEPNS_14mz_zip_archiveENS_12mz_zip_errorE(ptr noundef %16, i32 noundef 24)
  store i32 0, ptr %3, align 4
  store i32 1, ptr %9, align 4
  br label %66

18:                                               ; preds = %2
  %19 = load ptr, ptr %8, align 8, !tbaa !7
  %20 = getelementptr inbounds i8, ptr %19, i64 10
  %21 = getelementptr inbounds i8, ptr %20, i64 0
  %22 = load i8, ptr %21, align 1, !tbaa !12
  %23 = zext i8 %22 to i32
  %24 = load ptr, ptr %8, align 8, !tbaa !7
  %25 = getelementptr inbounds i8, ptr %24, i64 10
  %26 = getelementptr inbounds i8, ptr %25, i64 1
  %27 = load i8, ptr %26, align 1, !tbaa !12
  %28 = zext i8 %27 to i32
  %29 = shl i32 %28, 8
  %30 = or i32 %23, %29
  store i32 %30, ptr %7, align 4, !tbaa !10
  %31 = load ptr, ptr %8, align 8, !tbaa !7
  %32 = getelementptr inbounds i8, ptr %31, i64 8
  %33 = getelementptr inbounds i8, ptr %32, i64 0
  %34 = load i8, ptr %33, align 1, !tbaa !12
  %35 = zext i8 %34 to i32
  %36 = load ptr, ptr %8, align 8, !tbaa !7
  %37 = getelementptr inbounds i8, ptr %36, i64 8
  %38 = getelementptr inbounds i8, ptr %37, i64 1
  %39 = load i8, ptr %38, align 1, !tbaa !12
  %40 = zext i8 %39 to i32
  %41 = shl i32 %40, 8
  %42 = or i32 %35, %41
  store i32 %42, ptr %6, align 4, !tbaa !10
  %43 = load i32, ptr %7, align 4, !tbaa !10
  %44 = icmp ne i32 %43, 0
  br i1 %44, label %45, label %51

45:                                               ; preds = %18
  %46 = load i32, ptr %7, align 4, !tbaa !10
  %47 = icmp ne i32 %46, 8
  br i1 %47, label %48, label %51

48:                                               ; preds = %45
  %49 = load ptr, ptr %4, align 8, !tbaa !19
  %50 = call noundef i32 @_ZN12duckdb_minizL16mz_zip_set_errorEPNS_14mz_zip_archiveENS_12mz_zip_errorE(ptr noundef %49, i32 noundef 4)
  store i32 0, ptr %3, align 4
  store i32 1, ptr %9, align 4
  br label %66

51:                                               ; preds = %45, %18
  %52 = load i32, ptr %6, align 4, !tbaa !10
  %53 = and i32 %52, 65
  %54 = icmp ne i32 %53, 0
  br i1 %54, label %55, label %58

55:                                               ; preds = %51
  %56 = load ptr, ptr %4, align 8, !tbaa !19
  %57 = call noundef i32 @_ZN12duckdb_minizL16mz_zip_set_errorEPNS_14mz_zip_archiveENS_12mz_zip_errorE(ptr noundef %56, i32 noundef 5)
  store i32 0, ptr %3, align 4
  store i32 1, ptr %9, align 4
  br label %66

58:                                               ; preds = %51
  %59 = load i32, ptr %6, align 4, !tbaa !10
  %60 = and i32 %59, 32
  %61 = icmp ne i32 %60, 0
  br i1 %61, label %62, label %65

62:                                               ; preds = %58
  %63 = load ptr, ptr %4, align 8, !tbaa !19
  %64 = call noundef i32 @_ZN12duckdb_minizL16mz_zip_set_errorEPNS_14mz_zip_archiveENS_12mz_zip_errorE(ptr noundef %63, i32 noundef 6)
  store i32 0, ptr %3, align 4
  store i32 1, ptr %9, align 4
  br label %66

65:                                               ; preds = %58
  store i32 1, ptr %3, align 4
  store i32 1, ptr %9, align 4
  br label %66

66:                                               ; preds = %65, %62, %55, %48, %15
  call void @llvm.lifetime.end.p0(i64 8, ptr %8) #11
  call void @llvm.lifetime.end.p0(i64 4, ptr %7) #11
  call void @llvm.lifetime.end.p0(i64 4, ptr %6) #11
  %67 = load i32, ptr %3, align 4
  ret i32 %67
}